; Function Attrs: mustprogress uwtable
define hidden noundef nonnull align 8 dereferenceable(8) ptr @_ZN7testinglsERSoRKNS_14TestPartResultE(ptr noundef nonnull align 8 dereferenceable(8) %0, ptr noundef nonnull readonly align 8 captures(none) dereferenceable(112) %1) local_unnamed_addr #3 {
  %3 = getelementptr inbounds nuw i8, ptr %1, i64 8
  %4 = getelementptr inbounds nuw i8, ptr %1, i64 16
  %5 = load i64, ptr %4, align 8
  %6 = icmp eq i64 %5, 0
  %7 = load ptr, ptr %3, align 8
  %.not.i9 = icmp eq ptr %7, null
  %.not.i = select i1 %6, i1 true, i1 %.not.i9
  br i1 %.not.i, label %8, label %16

8:                                                ; preds = %2
  %9 = load ptr, ptr %0, align 8
  %10 = getelementptr i8, ptr %9, i64 -24
  %11 = load i64, ptr %10, align 8
  %12 = getelementptr inbounds i8, ptr %0, i64 %11
  %13 = getelementptr inbounds nuw i8, ptr %12, i64 32
  %14 = load i32, ptr %13, align 8
  %15 = or i32 %14, 1
  tail call void @_ZNSt9basic_iosIcSt11char_traitsIcEE5clearESt12_Ios_Iostate(ptr noundef nonnull align 8 dereferenceable(264) %12, i32 noundef %15)
  br label %_ZStlsISt11char_traitsIcEERSt13basic_ostreamIcT_ES5_PKc.exit

16:                                               ; preds = %2
  %17 = tail call noundef i64 @strlen(ptr noundef nonnull dereferenceable(1) %7) #53
  %18 = tail call noundef nonnull align 8 dereferenceable(8) ptr @_ZSt16__ostream_insertIcSt11char_traitsIcEERSt13basic_ostreamIT_T0_ES6_PKS3_l(ptr noundef nonnull align 8 dereferenceable(8) %0, ptr noundef nonnull %7, i64 noundef %17)
  br label %_ZStlsISt11char_traitsIcEERSt13basic_ostreamIcT_ES5_PKc.exit

_ZStlsISt11char_traitsIcEERSt13basic_ostreamIcT_ES5_PKc.exit: ; preds = %8, %16
  %19 = tail call noundef nonnull align 8 dereferenceable(8) ptr @_ZSt16__ostream_insertIcSt11char_traitsIcEERSt13basic_ostreamIT_T0_ES6_PKS3_l(ptr noundef nonnull align 8 dereferenceable(8) %0, ptr noundef nonnull @.str.176, i64 noundef 1)
  %20 = getelementptr inbounds nuw i8, ptr %1, i64 40
  %21 = load i32, ptr %20, align 8
  %22 = tail call noundef nonnull align 8 dereferenceable(8) ptr @_ZNSolsEi(ptr noundef nonnull align 8 dereferenceable(8) %0, i32 noundef %21)
  %23 = tail call noundef nonnull align 8 dereferenceable(8) ptr @_ZSt16__ostream_insertIcSt11char_traitsIcEERSt13basic_ostreamIT_T0_ES6_PKS3_l(ptr noundef nonnull align 8 dereferenceable(8) %22, ptr noundef nonnull @.str.258, i64 noundef 2)
  %24 = load i32, ptr %1, align 8
  %25 = icmp eq i32 %24, 0
  %26 = icmp eq i32 %24, 2
  %27 = select i1 %26, ptr @.str.313, ptr @.str.314
  %28 = select i1 %25, ptr @.str.312, ptr %27
  %29 = tail call noundef i64 @strlen(ptr noundef nonnull dereferenceable(1) %28) #53
  %30 = tail call noundef nonnull align 8 dereferenceable(8) ptr @_ZSt16__ostream_insertIcSt11char_traitsIcEERSt13basic_ostreamIT_T0_ES6_PKS3_l(ptr noundef nonnull align 8 dereferenceable(8) %22, ptr noundef nonnull %28, i64 noundef %29)
  %31 = tail call noundef nonnull align 8 dereferenceable(8) ptr @_ZSt16__ostream_insertIcSt11char_traitsIcEERSt13basic_ostreamIT_T0_ES6_PKS3_l(ptr noundef nonnull align 8 dereferenceable(8) %22, ptr noundef nonnull @.str.315, i64 noundef 2)
  %32 = getelementptr inbounds nuw i8, ptr %1, i64 80
  %33 = load ptr, ptr %32, align 8
  %.not.i7 = icmp eq ptr %33, null
  br i1 %.not.i7, label %34, label %42

34:                                               ; preds = %_ZStlsISt11char_traitsIcEERSt13basic_ostreamIcT_ES5_PKc.exit
  %35 = load ptr, ptr %22, align 8
  %36 = getelementptr i8, ptr %35, i64 -24
  %37 = load i64, ptr %36, align 8
  %38 = getelementptr inbounds i8, ptr %22, i64 %37
  %39 = getelementptr inbounds nuw i8, ptr %38, i64 32
  %40 = load i32, ptr %39, align 8
  %41 = or i32 %40, 1
  tail call void @_ZNSt9basic_iosIcSt11char_traitsIcEE5clearESt12_Ios_Iostate(ptr noundef nonnull align 8 dereferenceable(264) %38, i32 noundef %41)
  br label %_ZStlsISt11char_traitsIcEERSt13basic_ostreamIcT_ES5_PKc.exit8

42:                                               ; preds = %_ZStlsISt11char_traitsIcEERSt13basic_ostreamIcT_ES5_PKc.exit
  %43 = tail call noundef i64 @strlen(ptr noundef nonnull dereferenceable(1) %33) #53
  %44 = tail call noundef nonnull align 8 dereferenceable(8) ptr @_ZSt16__ostream_insertIcSt11char_traitsIcEERSt13basic_ostreamIT_T0_ES6_PKS3_l(ptr noundef nonnull align 8 dereferenceable(8) %22, ptr noundef nonnull %33, i64 noundef %43)
  br label %_ZStlsISt11char_traitsIcEERSt13basic_ostreamIcT_ES5_PKc.exit8

_ZStlsISt11char_traitsIcEERSt13basic_ostreamIcT_ES5_PKc.exit8: ; preds = %34, %42
  %45 = load ptr, ptr %22, align 8
  %46 = getelementptr i8, ptr %45, i64 -24
  %47 = load i64, ptr %46, align 8
  %48 = getelementptr inbounds i8, ptr %22, i64 %47
  %49 = getelementptr inbounds nuw i8, ptr %48, i64 240
  %50 = load ptr, ptr %49, align 8
  %.not.i.i.i = icmp eq ptr %50, null
  br i1 %.not.i.i.i, label %51, label %_ZSt13__check_facetISt5ctypeIcEERKT_PS3_.exit.i.i

51:                                               ; preds = %_ZStlsISt11char_traitsIcEERSt13basic_ostreamIcT_ES5_PKc.exit8
  tail call void @_ZSt16__throw_bad_castv() #56
  unreachable

_ZSt13__check_facetISt5ctypeIcEERKT_PS3_.exit.i.i: ; preds = %_ZStlsISt11char_traitsIcEERSt13basic_ostreamIcT_ES5_PKc.exit8
  %52 = getelementptr inbounds nuw i8, ptr %50, i64 56
  %53 = load i8, ptr %52, align 8
  %.not.i1.i.i = icmp eq i8 %53, 0
  br i1 %.not.i1.i.i, label %57, label %54

54:                                               ; preds = %_ZSt13__check_facetISt5ctypeIcEERKT_PS3_.exit.i.i
  %55 = getelementptr inbounds nuw i8, ptr %50, i64 67
  %56 = load i8, ptr %55, align 1
  br label %_ZSt4endlIcSt11char_traitsIcEERSt13basic_ostreamIT_T0_ES6_.exit

57:                                               ; preds = %_ZSt13__check_facetISt5ctypeIcEERKT_PS3_.exit.i.i
  tail call void @_ZNKSt5ctypeIcE13_M_widen_initEv(ptr noundef nonnull align 8 dereferenceable(570) %50)
  %58 = load ptr, ptr %50, align 8
  %59 = getelementptr inbounds nuw i8, ptr %58, i64 48
  %60 = load ptr, ptr %59, align 8
  %61 = tail call noundef signext i8 %60(ptr noundef nonnull align 8 dereferenceable(570) %50, i8 noundef signext 10)
  br label %_ZSt4endlIcSt11char_traitsIcEERSt13basic_ostreamIT_T0_ES6_.exit

_ZSt4endlIcSt11char_traitsIcEERSt13basic_ostreamIT_T0_ES6_.exit: ; preds = %54, %57
  %.0.i.i.i = phi i8 [ %56, %54 ], [ %61, %57 ]
  %62 = tail call noundef nonnull align 8 dereferenceable(8) ptr @_ZNSo3putEc(ptr noundef nonnull align 8 dereferenceable(8) %22, i8 noundef signext %.0.i.i.i)
  %63 = tail call noundef nonnull align 8 dereferenceable(8) ptr @_ZNSo5flushEv(ptr noundef nonnull align 8 dereferenceable(8) %62)
  ret ptr %63
}